target datalayout = "e-m:e-p270:32:32-p271:32:32-p272:64:64-i64:64-i128:128-f80:128-n8:16:32:64-S128"
target triple = "x86_64-pc-linux-gnu"

%struct.Vec_Int_t_ = type { i32, i32, ptr }
%struct.Abc_Frame_t_ = type { ptr, ptr, ptr, ptr, ptr, ptr, ptr, ptr, ptr, ptr, i32, i32, i32, i32, i32, ptr, float, float, i32, i32, ptr, ptr, ptr, double, double, ptr, ptr, ptr, ptr, ptr, ptr, ptr, ptr, ptr, ptr, ptr, ptr, float, ptr, i32, ptr, ptr, ptr, ptr, ptr, i32, i32, i32, i32, i32, i32, ptr, ptr, ptr, ptr, ptr, ptr, i32, i32, ptr, ptr, ptr, ptr, ptr, ptr, ptr, ptr, ptr, ptr, ptr, ptr, ptr, ptr, ptr, ptr, ptr, ptr, ptr, ptr, ptr, ptr, ptr, ptr, ptr, ptr, ptr, ptr, ptr, ptr }
%struct.Vec_Flt_t_ = type { i32, i32, ptr }

@.str.11 = private unnamed_addr constant [44 x i8] c"GIA derived from MiniLut is not available.\0A\00", align 1

; Function Attrs: inlinehint nounwind uwtable
define internal void @Vec_IntFree(ptr noundef %0) #2 {
  %2 = alloca ptr, align 8
  store ptr %0, ptr %2, align 8, !tbaa !8
  %3 = load ptr, ptr %2, align 8, !tbaa !8
  %4 = getelementptr inbounds nuw %struct.Vec_Int_t_, ptr %3, i32 0, i32 2
  %5 = load ptr, ptr %4, align 8, !tbaa !17
  %6 = icmp ne ptr %5, null
  br i1 %6, label %7, label %13

7:                                                ; preds = %1
  %8 = load ptr, ptr %2, align 8, !tbaa !8
  %9 = getelementptr inbounds nuw %struct.Vec_Int_t_, ptr %8, i32 0, i32 2
  %10 = load ptr, ptr %9, align 8, !tbaa !17
  call void @free(ptr noundef %10) #13
  %11 = load ptr, ptr %2, align 8, !tbaa !8
  %12 = getelementptr inbounds nuw %struct.Vec_Int_t_, ptr %11, i32 0, i32 2
  store ptr null, ptr %12, align 8, !tbaa !17
  br label %14

13:                                               ; preds = %1
  br label %14

14:                                               ; preds = %13, %7
  %15 = load ptr, ptr %2, align 8, !tbaa !8
  %16 = icmp ne ptr %15, null
  br i1 %16, label %17, label %19

17:                                               ; preds = %14
  %18 = load ptr, ptr %2, align 8, !tbaa !8
  call void @free(ptr noundef %18) #13
  store ptr null, ptr %2, align 8, !tbaa !8
  br label %20

19:                                               ; preds = %14
  br label %20

20:                                               ; preds = %19, %17
  ret void
}

; Function Attrs: inlinehint nounwind uwtable
define internal float @Vec_FltEntry(ptr noundef %0, i32 noundef %1) #2 {
  %3 = alloca ptr, align 8
  %4 = alloca i32, align 4
  store ptr %0, ptr %3, align 8, !tbaa !138
  store i32 %1, ptr %4, align 4, !tbaa !12
  %5 = load ptr, ptr %3, align 8, !tbaa !138
  %6 = getelementptr inbounds nuw %struct.Vec_Flt_t_, ptr %5, i32 0, i32 2
  %7 = load ptr, ptr %6, align 8, !tbaa !139
  %8 = load i32, ptr %4, align 4, !tbaa !12
  %9 = sext i32 %8 to i64
  %10 = getelementptr inbounds float, ptr %7, i64 %9
  %11 = load float, ptr %10, align 4, !tbaa !142
  ret float %11
}

; Function Attrs: inlinehint nounwind uwtable
define internal i32 @Abc_Lit2Var(i32 noundef %0) #2 {
  %2 = alloca i32, align 4
  store i32 %0, ptr %2, align 4, !tbaa !12
  %3 = load i32, ptr %2, align 4, !tbaa !12
  %4 = ashr i32 %3, 1
  ret i32 %4
}

; Function Attrs: inlinehint nounwind uwtable
define internal i32 @Vec_IntEntry(ptr noundef %0, i32 noundef %1) #2 {
  %3 = alloca ptr, align 8
  %4 = alloca i32, align 4
  store ptr %0, ptr %3, align 8, !tbaa !8
  store i32 %1, ptr %4, align 4, !tbaa !12
  %5 = load ptr, ptr %3, align 8, !tbaa !8
  %6 = getelementptr inbounds nuw %struct.Vec_Int_t_, ptr %5, i32 0, i32 2
  %7 = load ptr, ptr %6, align 8, !tbaa !17
  %8 = load i32, ptr %4, align 4, !tbaa !12
  %9 = sext i32 %8 to i64
  %10 = getelementptr inbounds i32, ptr %7, i64 %9
  %11 = load i32, ptr %10, align 4, !tbaa !12
  ret i32 %11
}

; Function Attrs: inlinehint nounwind uwtable
define internal i32 @Vec_IntSize(ptr noundef %0) #2 {
  %2 = alloca ptr, align 8
  store ptr %0, ptr %2, align 8, !tbaa !8
  %3 = load ptr, ptr %2, align 8, !tbaa !8
  %4 = getelementptr inbounds nuw %struct.Vec_Int_t_, ptr %3, i32 0, i32 1
  %5 = load i32, ptr %4, align 4, !tbaa !43
  ret i32 %5
}

; Function Attrs: nounwind uwtable
define ptr @Abc_FrameReadMiniLutSwitching2(ptr noundef %0, i32 noundef %1) #0 {
  %3 = alloca ptr, align 8
  %4 = alloca ptr, align 8
  %5 = alloca i32, align 4
  %6 = alloca ptr, align 8
  %7 = alloca i32, align 4
  %8 = alloca i32, align 4
  %9 = alloca ptr, align 8
  %10 = alloca i32, align 4
  store ptr %0, ptr %4, align 8, !tbaa !58
  store i32 %1, ptr %5, align 4, !tbaa !12
  call void @llvm.lifetime.start.p0(i64 8, ptr %6) #13
  call void @llvm.lifetime.start.p0(i64 4, ptr %7) #13
  call void @llvm.lifetime.start.p0(i64 4, ptr %8) #13
  call void @llvm.lifetime.start.p0(i64 8, ptr %9) #13
  store ptr null, ptr %9, align 8, !tbaa !83
  %11 = load ptr, ptr %4, align 8, !tbaa !58
  %12 = getelementptr inbounds nuw %struct.Abc_Frame_t_, ptr %11, i32 0, i32 81
  %13 = load ptr, ptr %12, align 8, !tbaa !128
  %14 = icmp eq ptr %13, null
  br i1 %14, label %15, label %17

15:                                               ; preds = %2
  %16 = call i32 (ptr, ...) @printf(ptr noundef @.str.11)
  store ptr null, ptr %3, align 8
  store i32 1, ptr %10, align 4
  br label %65

17:                                               ; preds = %2
  %18 = load ptr, ptr %4, align 8, !tbaa !58
  %19 = getelementptr inbounds nuw %struct.Abc_Frame_t_, ptr %18, i32 0, i32 81
  %20 = load ptr, ptr %19, align 8, !tbaa !128
  %21 = load i32, ptr %5, align 4, !tbaa !12
  %22 = call ptr @Gia_ManComputeSwitchProbs2(ptr noundef %20, i32 noundef 48, i32 noundef 16, i32 noundef 0, i32 noundef %21)
  store ptr %22, ptr %6, align 8, !tbaa !8
  %23 = load ptr, ptr %4, align 8, !tbaa !58
  %24 = getelementptr inbounds nuw %struct.Abc_Frame_t_, ptr %23, i32 0, i32 83
  %25 = load ptr, ptr %24, align 8, !tbaa !136
  %26 = call i32 @Vec_IntSize(ptr noundef %25)
  %27 = sext i32 %26 to i64
  %28 = call noalias ptr @calloc(i64 noundef %27, i64 noundef 4) #16
  store ptr %28, ptr %9, align 8, !tbaa !83
  store i32 0, ptr %7, align 4, !tbaa !12
  br label %29

29:                                               ; preds = %59, %17
  %30 = load i32, ptr %7, align 4, !tbaa !12
  %31 = load ptr, ptr %4, align 8, !tbaa !58
  %32 = getelementptr inbounds nuw %struct.Abc_Frame_t_, ptr %31, i32 0, i32 83
  %33 = load ptr, ptr %32, align 8, !tbaa !136
  %34 = call i32 @Vec_IntSize(ptr noundef %33)
  %35 = icmp slt i32 %30, %34
  br i1 %35, label %36, label %42

36:                                               ; preds = %29
  %37 = load ptr, ptr %4, align 8, !tbaa !58
  %38 = getelementptr inbounds nuw %struct.Abc_Frame_t_, ptr %37, i32 0, i32 83
  %39 = load ptr, ptr %38, align 8, !tbaa !136
  %40 = load i32, ptr %7, align 4, !tbaa !12
  %41 = call i32 @Vec_IntEntry(ptr noundef %39, i32 noundef %40)
  store i32 %41, ptr %8, align 4, !tbaa !12
  br label %42

42:                                               ; preds = %36, %29
  %43 = phi i1 [ false, %29 ], [ true, %36 ]
  br i1 %43, label %44, label %62

44:                                               ; preds = %42
  %45 = load i32, ptr %8, align 4, !tbaa !12
  %46 = icmp sge i32 %45, 0
  br i1 %46, label %47, label %58

47:                                               ; preds = %44
  %48 = load ptr, ptr %6, align 8, !tbaa !8
  %49 = load i32, ptr %8, align 4, !tbaa !12
  %50 = call i32 @Abc_Lit2Var(i32 noundef %49)
  %51 = call float @Vec_FltEntry(ptr noundef %48, i32 noundef %50)
  %52 = fmul float 1.000000e+04, %51
  %53 = fptosi float %52 to i32
  %54 = load ptr, ptr %9, align 8, !tbaa !83
  %55 = load i32, ptr %7, align 4, !tbaa !12
  %56 = sext i32 %55 to i64
  %57 = getelementptr inbounds i32, ptr %54, i64 %56
  store i32 %53, ptr %57, align 4, !tbaa !12
  br label %58

58:                                               ; preds = %47, %44
  br label %59

59:                                               ; preds = %58
  %60 = load i32, ptr %7, align 4, !tbaa !12
  %61 = add nsw i32 %60, 1
  store i32 %61, ptr %7, align 4, !tbaa !12
  br label %29, !llvm.loop !143

62:                                               ; preds = %42
  %63 = load ptr, ptr %6, align 8, !tbaa !8
  call void @Vec_IntFree(ptr noundef %63)
  %64 = load ptr, ptr %9, align 8, !tbaa !83
  store ptr %64, ptr %3, align 8
  store i32 1, ptr %10, align 4
  br label %65

65:                                               ; preds = %62, %15
  call void @llvm.lifetime.end.p0(i64 8, ptr %9) #13
  call void @llvm.lifetime.end.p0(i64 4, ptr %8) #13
  call void @llvm.lifetime.end.p0(i64 4, ptr %7) #13
  call void @llvm.lifetime.end.p0(i64 8, ptr %6) #13
  %66 = load ptr, ptr %3, align 8
  ret ptr %66
}