; Function Attrs: nounwind uwtable
define noalias noundef ptr @Abc_FrameReadMiniLutSwitching2(ptr noundef readonly captures(none) %0, i32 noundef %1) local_unnamed_addr #2 {
  %3 = getelementptr inbounds nuw i8, ptr %0, i64 584
  %4 = load ptr, ptr %3, align 8, !tbaa !111
  %5 = icmp eq ptr %4, null
  br i1 %5, label %6, label %7

6:                                                ; preds = %2
  %puts = tail call i32 @puts(ptr nonnull dereferenceable(1) @str.12)
  br label %33

7:                                                ; preds = %2
  %8 = tail call ptr @Gia_ManComputeSwitchProbs2(ptr noundef nonnull %4, i32 noundef 48, i32 noundef 16, i32 noundef 0, i32 noundef %1) #25
  %9 = getelementptr inbounds nuw i8, ptr %0, i64 600
  %10 = load ptr, ptr %9, align 8, !tbaa !119
  %11 = getelementptr i8, ptr %10, i64 4
  %.val20 = load i32, ptr %11, align 4, !tbaa !34
  %12 = sext i32 %.val20 to i64
  %13 = tail call noalias ptr @calloc(i64 noundef %12, i64 noundef 4) #28
  %14 = icmp sgt i32 %.val20, 0
  br i1 %14, label %.lr.ph, label %.critedge

.lr.ph:                                           ; preds = %7
  %15 = getelementptr i8, ptr %10, i64 8
  %.val = load ptr, ptr %15, align 8, !tbaa !11
  %16 = getelementptr i8, ptr %8, i64 8
  %wide.trip.count = zext nneg i32 %.val20 to i64
  br label %17

17:                                               ; preds = %.lr.ph, %29
  %indvars.iv = phi i64 [ 0, %.lr.ph ], [ %indvars.iv.next, %29 ]
  %18 = getelementptr inbounds nuw i32, ptr %.val, i64 %indvars.iv
  %19 = load i32, ptr %18, align 4, !tbaa !10
  %20 = icmp sgt i32 %19, -1
  br i1 %20, label %21, label %29

21:                                               ; preds = %17
  %22 = lshr i32 %19, 1
  %.val21 = load ptr, ptr %16, align 8, !tbaa !120
  %23 = zext nneg i32 %22 to i64
  %24 = getelementptr inbounds nuw float, ptr %.val21, i64 %23
  %25 = load float, ptr %24, align 4, !tbaa !123
  %26 = fmul float %25, 1.000000e+04
  %27 = fptosi float %26 to i32
  %28 = getelementptr inbounds nuw i32, ptr %13, i64 %indvars.iv
  store i32 %27, ptr %28, align 4, !tbaa !10
  br label %29

29:                                               ; preds = %17, %21
  %indvars.iv.next = add nuw nsw i64 %indvars.iv, 1
  %exitcond.not = icmp eq i64 %indvars.iv.next, %wide.trip.count
  br i1 %exitcond.not, label %.critedge, label %17, !llvm.loop !125

.critedge:                                        ; preds = %29, %7
  %30 = getelementptr inbounds nuw i8, ptr %8, i64 8
  %31 = load ptr, ptr %30, align 8, !tbaa !11
  %.not.i = icmp eq ptr %31, null
  br i1 %.not.i, label %Vec_IntFree.exit, label %32

32:                                               ; preds = %.critedge
  tail call void @free(ptr noundef nonnull %31) #25
  br label %Vec_IntFree.exit

Vec_IntFree.exit:                                 ; preds = %.critedge, %32
  tail call void @free(ptr noundef nonnull %8) #25
  br label %33

33:                                               ; preds = %Vec_IntFree.exit, %6
  %.0 = phi ptr [ null, %6 ], [ %13, %Vec_IntFree.exit ]
  ret ptr %.0
}